; Function Attrs: nounwind sspstrong uwtable
define dso_local void @tcg_gen_gvec_rotri(i32 noundef %0, i32 noundef %1, i32 noundef %2, i64 noundef %3, i32 noundef %4, i32 noundef %5) local_unnamed_addr #2 {
  %7 = icmp sgt i64 %3, -1
  tail call void @llvm.assume(i1 %7)
  %8 = shl nuw nsw i32 8, %0
  %9 = zext nneg i32 %8 to i64
  %10 = icmp samesign ult i64 %3, %9
  tail call void @llvm.assume(i1 %10)
  %11 = sub nsw i64 0, %3
  %12 = add nsw i32 %8, -1
  %13 = zext nneg i32 %12 to i64
  %14 = and i64 %11, %13
  %15 = icmp ult i32 %0, 4
  tail call void @llvm.assume(i1 %15)
  %16 = icmp samesign ult i64 %14, %9
  tail call void @llvm.assume(i1 %16)
  %17 = icmp eq i64 %14, 0
  br i1 %17, label %18, label %36

18:                                               ; preds = %6
  %.not.i.i = icmp eq i32 %1, %2
  br i1 %.not.i.i, label %20, label %19

19:                                               ; preds = %18
  tail call void @tcg_gen_gvec_2(i32 noundef %1, i32 noundef %2, i32 noundef %4, i32 noundef %5, ptr noundef nonnull @tcg_gen_gvec_mov.g)
  br label %tcg_gen_gvec_rotli.exit

20:                                               ; preds = %18
  switch i32 %4, label %23 [
    i32 8, label %21
    i32 16, label %21
    i32 32, label %21
  ]

21:                                               ; preds = %20, %20, %20
  %22 = icmp ule i32 %4, %5
  br label %check_size_align.exit.i.i

23:                                               ; preds = %20
  %24 = icmp eq i32 %4, %5
  br label %check_size_align.exit.i.i

check_size_align.exit.i.i:                        ; preds = %23, %21
  %.sink.i.i.i = phi i1 [ %22, %21 ], [ %24, %23 ]
  tail call void @llvm.assume(i1 %.sink.i.i.i)
  %25 = icmp ult i32 %5, 2049
  tail call void @llvm.assume(i1 %25)
  %26 = icmp samesign ugt i32 %5, 15
  %27 = select i1 %26, i32 15, i32 7
  %28 = and i32 %27, %5
  %29 = icmp eq i32 %28, 0
  tail call void @llvm.assume(i1 %29)
  %30 = and i32 %27, %1
  %31 = icmp eq i32 %30, 0
  tail call void @llvm.assume(i1 %31)
  %32 = icmp ult i32 %4, %5
  br i1 %32, label %33, label %tcg_gen_gvec_rotli.exit

33:                                               ; preds = %check_size_align.exit.i.i
  %34 = add i32 %4, %1
  %35 = sub nuw nsw i32 %5, %4
  tail call fastcc void @do_dup(i32 noundef 0, i32 noundef %34, i32 noundef %35, i32 noundef %35, ptr noundef null, ptr noundef null, i64 noundef 0)
  br label %tcg_gen_gvec_rotli.exit

36:                                               ; preds = %6
  %37 = zext nneg i32 %0 to i64
  %38 = getelementptr inbounds nuw [4 x %struct.GVecGen2i], ptr @tcg_gen_gvec_rotli.g, i64 0, i64 %37
  tail call void @tcg_gen_gvec_2i(i32 noundef %1, i32 noundef %2, i32 noundef %4, i32 noundef %5, i64 noundef %14, ptr noundef nonnull %38)
  br label %tcg_gen_gvec_rotli.exit

tcg_gen_gvec_rotli.exit:                          ; preds = %19, %check_size_align.exit.i.i, %33, %36
  ret void
}